target datalayout = "e-m:e-p270:32:32-p271:32:32-p272:64:64-i64:64-i128:128-f80:128-n8:16:32:64-S128"
target triple = "x86_64-pc-linux-gnu"

; Function Attrs: mustprogress nounwind uwtable
define internal noundef signext i8 @_ZN6icu_77L13isASCIIOkBiDiEPKDsi(ptr noundef %0, i32 noundef %1) #0 {
  %3 = alloca i8, align 1
  %4 = alloca ptr, align 8
  %5 = alloca i32, align 4
  %6 = alloca i32, align 4
  %7 = alloca i32, align 4
  %8 = alloca i32, align 4
  %9 = alloca i16, align 2
  store ptr %0, ptr %4, align 8, !tbaa !42
  store i32 %1, ptr %5, align 4, !tbaa !14
  call void @llvm.lifetime.start.p0(i64 4, ptr %6) #13
  store i32 0, ptr %6, align 4, !tbaa !14
  call void @llvm.lifetime.start.p0(i64 4, ptr %7) #13
  store i32 0, ptr %7, align 4, !tbaa !14
  br label %10

10:                                               ; preds = %92, %2
  %11 = load i32, ptr %7, align 4, !tbaa !14
  %12 = load i32, ptr %5, align 4, !tbaa !14
  %13 = icmp slt i32 %11, %12
  br i1 %13, label %15, label %14

14:                                               ; preds = %10
  store i32 2, ptr %8, align 4
  br label %95

15:                                               ; preds = %10
  call void @llvm.lifetime.start.p0(i64 2, ptr %9) #13
  %16 = load ptr, ptr %4, align 8, !tbaa !42
  %17 = load i32, ptr %7, align 4, !tbaa !14
  %18 = sext i32 %17 to i64
  %19 = getelementptr inbounds i16, ptr %16, i64 %18
  %20 = load i16, ptr %19, align 2, !tbaa !47
  store i16 %20, ptr %9, align 2, !tbaa !47
  %21 = load i16, ptr %9, align 2, !tbaa !47
  %22 = zext i16 %21 to i32
  %23 = icmp eq i32 %22, 46
  br i1 %23, label %24, label %55

24:                                               ; preds = %15
  %25 = load i32, ptr %7, align 4, !tbaa !14
  %26 = load i32, ptr %6, align 4, !tbaa !14
  %27 = icmp sgt i32 %25, %26
  br i1 %27, label %28, label %52

28:                                               ; preds = %24
  %29 = load ptr, ptr %4, align 8, !tbaa !42
  %30 = load i32, ptr %7, align 4, !tbaa !14
  %31 = sub nsw i32 %30, 1
  %32 = sext i32 %31 to i64
  %33 = getelementptr inbounds i16, ptr %29, i64 %32
  %34 = load i16, ptr %33, align 2, !tbaa !47
  store i16 %34, ptr %9, align 2, !tbaa !47
  %35 = load i16, ptr %9, align 2, !tbaa !47
  %36 = zext i16 %35 to i32
  %37 = icmp sle i32 97, %36
  br i1 %37, label %38, label %42

38:                                               ; preds = %28
  %39 = load i16, ptr %9, align 2, !tbaa !47
  %40 = zext i16 %39 to i32
  %41 = icmp sle i32 %40, 122
  br i1 %41, label %51, label %42

42:                                               ; preds = %38, %28
  %43 = load i16, ptr %9, align 2, !tbaa !47
  %44 = zext i16 %43 to i32
  %45 = icmp sle i32 48, %44
  br i1 %45, label %46, label %50

46:                                               ; preds = %42
  %47 = load i16, ptr %9, align 2, !tbaa !47
  %48 = zext i16 %47 to i32
  %49 = icmp sle i32 %48, 57
  br i1 %49, label %51, label %50

50:                                               ; preds = %46, %42
  store i8 0, ptr %3, align 1
  store i32 1, ptr %8, align 4
  br label %89

51:                                               ; preds = %46, %38
  br label %52

52:                                               ; preds = %51, %24
  %53 = load i32, ptr %7, align 4, !tbaa !14
  %54 = add nsw i32 %53, 1
  store i32 %54, ptr %6, align 4, !tbaa !14
  br label %88

55:                                               ; preds = %15
  %56 = load i32, ptr %7, align 4, !tbaa !14
  %57 = load i32, ptr %6, align 4, !tbaa !14
  %58 = icmp eq i32 %56, %57
  br i1 %58, label %59, label %69

59:                                               ; preds = %55
  %60 = load i16, ptr %9, align 2, !tbaa !47
  %61 = zext i16 %60 to i32
  %62 = icmp sle i32 97, %61
  br i1 %62, label %63, label %67

63:                                               ; preds = %59
  %64 = load i16, ptr %9, align 2, !tbaa !47
  %65 = zext i16 %64 to i32
  %66 = icmp sle i32 %65, 122
  br i1 %66, label %68, label %67

67:                                               ; preds = %63, %59
  store i8 0, ptr %3, align 1
  store i32 1, ptr %8, align 4
  br label %89

68:                                               ; preds = %63
  br label %87

69:                                               ; preds = %55
  %70 = load i16, ptr %9, align 2, !tbaa !47
  %71 = zext i16 %70 to i32
  %72 = icmp sle i32 %71, 32
  br i1 %72, label %73, label %86

73:                                               ; preds = %69
  %74 = load i16, ptr %9, align 2, !tbaa !47
  %75 = zext i16 %74 to i32
  %76 = icmp sge i32 %75, 28
  br i1 %76, label %85, label %77

77:                                               ; preds = %73
  %78 = load i16, ptr %9, align 2, !tbaa !47
  %79 = zext i16 %78 to i32
  %80 = icmp sle i32 9, %79
  br i1 %80, label %81, label %86

81:                                               ; preds = %77
  %82 = load i16, ptr %9, align 2, !tbaa !47
  %83 = zext i16 %82 to i32
  %84 = icmp sle i32 %83, 13
  br i1 %84, label %85, label %86

85:                                               ; preds = %81, %73
  store i8 0, ptr %3, align 1
  store i32 1, ptr %8, align 4
  br label %89

86:                                               ; preds = %81, %77, %69
  br label %87

87:                                               ; preds = %86, %68
  br label %88

88:                                               ; preds = %87, %52
  store i32 0, ptr %8, align 4
  br label %89

89:                                               ; preds = %88, %85, %67, %50
  call void @llvm.lifetime.end.p0(i64 2, ptr %9) #13
  %90 = load i32, ptr %8, align 4
  switch i32 %90, label %95 [
    i32 0, label %91
  ]

91:                                               ; preds = %89
  br label %92

92:                                               ; preds = %91
  %93 = load i32, ptr %7, align 4, !tbaa !14
  %94 = add nsw i32 %93, 1
  store i32 %94, ptr %7, align 4, !tbaa !14
  br label %10, !llvm.loop !58

95:                                               ; preds = %89, %14
  call void @llvm.lifetime.end.p0(i64 4, ptr %7) #13
  %96 = load i32, ptr %8, align 4
  switch i32 %96, label %98 [
    i32 2, label %97
  ]

97:                                               ; preds = %95
  store i8 1, ptr %3, align 1
  store i32 1, ptr %8, align 4
  br label %98

98:                                               ; preds = %97, %95
  call void @llvm.lifetime.end.p0(i64 4, ptr %6) #13
  %99 = load i8, ptr %3, align 1
  ret i8 %99
}