; Function Attrs: mustprogress nofree norecurse nosync nounwind willreturn memory(argmem: read) uwtable
define internal fastcc noundef signext range(i8 0, 2) i8 @_ZN6icu_77L13isASCIIOkBiDiEPKDsi(ptr noundef readonly captures(none) %0, i32 noundef range(i32 1, -2147483648) %1) unnamed_addr #13 {
  %wide.trip.count = zext nneg i32 %1 to i64
  br label %3

3:                                                ; preds = %2, %28
  %indvars.iv = phi i64 [ 0, %2 ], [ %indvars.iv.next, %28 ]
  %.03848 = phi i32 [ 0, %2 ], [ %.2, %28 ]
  %4 = getelementptr inbounds nuw i16, ptr %0, i64 %indvars.iv
  %5 = load i16, ptr %4, align 2, !tbaa !27
  %6 = icmp eq i16 %5, 46
  br i1 %6, label %7, label %18

7:                                                ; preds = %3
  %8 = sext i32 %.03848 to i64
  %9 = icmp sgt i64 %indvars.iv, %8
  br i1 %9, label %10, label %15

10:                                               ; preds = %7
  %11 = getelementptr i8, ptr %4, i64 -2
  %12 = load i16, ptr %11, align 2, !tbaa !27
  %13 = add i16 %12, -97
  %or.cond = icmp ult i16 %13, 26
  %14 = add i16 %12, -48
  %or.cond6 = icmp ult i16 %14, 10
  %or.cond44 = or i1 %or.cond, %or.cond6
  br i1 %or.cond44, label %15, label %.thread

15:                                               ; preds = %10, %7
  %16 = trunc i64 %indvars.iv to i32
  %17 = add i32 %16, 1
  br label %28

18:                                               ; preds = %3
  %19 = zext i32 %.03848 to i64
  %20 = icmp eq i64 %indvars.iv, %19
  br i1 %20, label %21, label %23

21:                                               ; preds = %18
  %22 = add i16 %5, -97
  %or.cond9 = icmp ult i16 %22, 26
  br i1 %or.cond9, label %28, label %.thread

23:                                               ; preds = %18
  %24 = icmp ult i16 %5, 33
  br i1 %24, label %25, label %28

25:                                               ; preds = %23
  %26 = icmp samesign ugt i16 %5, 27
  %27 = add nsw i16 %5, -9
  %or.cond12 = icmp ult i16 %27, 5
  %or.cond45 = select i1 %26, i1 true, i1 %or.cond12
  br i1 %or.cond45, label %.thread, label %28

28:                                               ; preds = %25, %21, %23, %15
  %.2 = phi i32 [ %17, %15 ], [ %.03848, %21 ], [ %.03848, %23 ], [ %.03848, %25 ]
  %indvars.iv.next = add nuw nsw i64 %indvars.iv, 1
  %exitcond.not = icmp eq i64 %indvars.iv.next, %wide.trip.count
  br i1 %exitcond.not, label %.thread, label %3, !llvm.loop !38

.thread:                                          ; preds = %25, %21, %10, %28
  %.not.lcssa = phi i8 [ 0, %25 ], [ 0, %21 ], [ 0, %10 ], [ 1, %28 ]
  ret i8 %.not.lcssa
}